	.text
	.file	"tls.d9f5019e-cgu.0"
	.section	.text._ZN3std10sys_common9backtrace28__rust_begin_short_backtrace17h72a51f47e878e5f0E,"",@
	.globaltype	__stack_pointer, i32
	.globaltype	__tls_base, i32
	.functype	rust_eh_personality (i32, i32, i64, i32, i32) -> (i32)
	.functype	_ZN3std2rt19lang_start_internal17ha9c168f62b8ed25bE (i32, i32, i32, i32) -> (i32)
	.functype	_ZN3std3ffi5c_str7CString4_new17h12de52d892f6780cE (i32, i32) -> ()
	.functype	_ZN3std3sys4unix6thread6Thread4join17h3f2f87ac30cdbdc3E (i32) -> ()
	.functype	_ZN3std6thread7Builder3new17h4c4a05d19dfb6db6E (i32) -> ()
	.functype	_ZN3std6thread6Thread3new17h72e85afc217959ffE (i32, i32) -> (i32)
	.functype	_ZN3std2io5stdio18set_output_capture17h210ac67ea7bdfc46E (i32) -> (i32)
	.functype	_ZN3std3sys4unix6thread6Thread3new17he8ad19f4d63e347bE (i32, i32, i32, i32) -> ()
	.functype	_ZN3std6thread6Thread5cname17h1c84bb9c26beee7bE (i32, i32) -> ()
	.functype	_ZN3std3sys4unix6thread6Thread8set_name17h9ae56d6c27199934E (i32, i32) -> ()
	.functype	_ZN3std3sys4unix6thread5guard7current17h39f6162cebf9ca9aE (i32) -> ()
	.functype	_ZN3std10sys_common11thread_info3set17h21c677108822c0a3E (i32, i32) -> ()
	.functype	_ZN3std9panicking3try7cleanup17h42c95b2463000bebE (i32, i32) -> ()
	.functype	_ZN4core9panicking5panic17hee4c988cbcffcc61E (i32, i32, i32) -> ()
	.functype	_ZN3std10sys_common6thread9min_stack17h3d2d3d3872bd4e6cE () -> (i32)
	.functype	_ZN72_$LT$std..sys..unix..thread..Thread$u20$as$u20$core..ops..drop..Drop$GT$4drop17hb430e98fa6ff457cE (i32) -> ()
	.functype	_ZN78_$LT$std..sys_common..mutex..MovableMutex$u20$as$u20$core..ops..drop..Drop$GT$4drop17h0bc25ff92745a84dE (i32) -> ()
	.functype	_ZN68_$LT$std..thread..local..AccessError$u20$as$u20$core..fmt..Debug$GT$3fmt17ha9cbc46a07b3dd50E (i32, i32) -> (i32)
	.functype	_ZN4core6result13unwrap_failed17h4016779130cc2b21E (i32, i32, i32, i32, i32) -> ()
	.functype	_ZN62_$LT$std..ffi..c_str..NulError$u20$as$u20$core..fmt..Debug$GT$3fmt17h6fbd3967a99d2107E (i32, i32) -> (i32)
	.functype	_ZN58_$LT$std..io..error..Error$u20$as$u20$core..fmt..Debug$GT$3fmt17h3e2e0e37fe194a9fE (i32, i32) -> (i32)
	.functype	_ZN5alloc6string104_$LT$impl$u20$core..convert..From$LT$alloc..string..String$GT$$u20$for$u20$alloc..vec..Vec$LT$u8$GT$$GT$4from17hb314cc2b81cc104fE (i32, i32) -> ()
	.functype	_ZN5alloc5alloc18handle_alloc_error17h69e78be6ad71906dE (i32, i32) -> ()
	.functype	__rust_alloc (i32, i32) -> (i32)
	.functype	__rust_dealloc (i32, i32, i32) -> ()
	.functype	_ZN82_$LT$dyn$u20$core..any..Any$u2b$core..marker..Send$u20$as$u20$core..fmt..Debug$GT$3fmt17hf2d48f1b54eb4c78E (i32, i32, i32) -> (i32)
	.functype	_ZN3std2io5stdio6_print17h452c99b34f4cbd02E (i32) -> ()
	.functype	_ZN4core3fmt3num3imp52_$LT$impl$u20$core..fmt..Display$u20$for$u20$i32$GT$3fmt17h2dce79fe9c4168f4E (i32, i32) -> (i32)
	.functype	getTempRet0 () -> (i32)
	.import_module	getTempRet0, env
	.import_name	getTempRet0, getTempRet0
	.functype	setTempRet0 (i32) -> ()
	.import_module	setTempRet0, env
	.import_name	setTempRet0, setTempRet0
	.functype	__resumeException (i32) -> ()
	.import_module	__resumeException, env
	.import_name	__resumeException, __resumeException
	.functype	llvm_eh_typeid_for (i32) -> (i32)
	.import_module	llvm_eh_typeid_for, env
	.import_name	llvm_eh_typeid_for, llvm_eh_typeid_for
	.functype	invoke_vii (i32, i32, i32) -> ()
	.import_module	invoke_vii, env
	.import_name	invoke_vii, invoke_vii
	.functype	invoke_ii (i32, i32) -> (i32)
	.import_module	invoke_ii, env
	.import_name	invoke_ii, invoke_ii
	.functype	invoke_vi (i32, i32) -> ()
	.import_module	invoke_vi, env
	.import_name	invoke_vi, invoke_vi
	.functype	invoke_v (i32) -> ()
	.import_module	invoke_v, env
	.import_name	invoke_v, invoke_v
	.functype	__cxa_find_matching_catch_2 () -> (i32)
	.import_module	__cxa_find_matching_catch_2, env
	.import_name	__cxa_find_matching_catch_2, __cxa_find_matching_catch_2
	.functype	__cxa_find_matching_catch_4 (i32, i32) -> (i32)
	.import_module	__cxa_find_matching_catch_4, env
	.import_name	__cxa_find_matching_catch_4, __cxa_find_matching_catch_4
	.functype	invoke_i (i32) -> (i32)
	.import_module	invoke_i, env
	.import_name	invoke_i, invoke_i
	.functype	invoke_viiiii (i32, i32, i32, i32, i32, i32) -> ()
	.import_module	invoke_viiiii, env
	.import_name	invoke_viiiii, invoke_viiiii
	.functype	invoke_viiii (i32, i32, i32, i32, i32) -> ()
	.import_module	invoke_viiii, env
	.import_name	invoke_viiii, invoke_viiii
	.functype	invoke_viii (i32, i32, i32, i32) -> ()
	.import_module	invoke_viii, env
	.import_name	invoke_viii, invoke_viii
	.type	_ZN3std10sys_common9backtrace28__rust_begin_short_backtrace17h72a51f47e878e5f0E,@function
_ZN3std10sys_common9backtrace28__rust_begin_short_backtrace17h72a51f47e878e5f0E:
	.functype	_ZN3std10sys_common9backtrace28__rust_begin_short_backtrace17h72a51f47e878e5f0E () -> ()
	.local  	i32, i32, i32
	global.get	__stack_pointer
	i32.const	48
	i32.sub 
	local.tee	0
	global.set	__stack_pointer
	local.get	0
	i32.const	28
	i32.add 
	local.tee	1
	i32.const	0
	i32.store	0
	local.get	0
	i32.const	.L__unnamed_1
	i32.store	24
	local.get	0
	i64.const	1
	i64.store	12:p2align=2
	local.get	0
	i32.const	.L__unnamed_2
	i32.store	8
	local.get	0
	i32.const	8
	i32.add 
	call	_ZN3std2io5stdio6_print17h452c99b34f4cbd02E
	local.get	1
	i32.const	0
	i32.store	0
	local.get	0
	i32.const	.L__unnamed_1
	i32.store	24
	local.get	0
	i64.const	1
	i64.store	12:p2align=2
	local.get	0
	i32.const	.L__unnamed_2
	i32.store	8
	local.get	0
	i32.const	8
	i32.add 
	call	_ZN3std2io5stdio6_print17h452c99b34f4cbd02E
	local.get	1
	i32.const	0
	i32.store	0
	local.get	0
	i32.const	.L__unnamed_1
	i32.store	24
	local.get	0
	i64.const	1
	i64.store	12:p2align=2
	local.get	0
	i32.const	.L__unnamed_2
	i32.store	8
	local.get	0
	i32.const	8
	i32.add 
	call	_ZN3std2io5stdio6_print17h452c99b34f4cbd02E
	local.get	1
	i32.const	0
	i32.store	0
	local.get	0
	i32.const	.L__unnamed_1
	i32.store	24
	local.get	0
	i64.const	1
	i64.store	12:p2align=2
	local.get	0
	i32.const	.L__unnamed_2
	i32.store	8
	local.get	0
	i32.const	8
	i32.add 
	call	_ZN3std2io5stdio6_print17h452c99b34f4cbd02E
	local.get	1
	i32.const	0
	i32.store	0
	local.get	0
	i32.const	.L__unnamed_1
	i32.store	24
	local.get	0
	i64.const	1
	i64.store	12:p2align=2
	local.get	0
	i32.const	.L__unnamed_2
	i32.store	8
	local.get	0
	i32.const	8
	i32.add 
	call	_ZN3std2io5stdio6_print17h452c99b34f4cbd02E
	local.get	1
	i32.const	0
	i32.store	0
	local.get	0
	i32.const	.L__unnamed_1
	i32.store	24
	local.get	0
	i64.const	1
	i64.store	12:p2align=2
	local.get	0
	i32.const	.L__unnamed_2
	i32.store	8
	local.get	0
	i32.const	8
	i32.add 
	call	_ZN3std2io5stdio6_print17h452c99b34f4cbd02E
	local.get	1
	i32.const	0
	i32.store	0
	local.get	0
	i32.const	.L__unnamed_1
	i32.store	24
	local.get	0
	i64.const	1
	i64.store	12:p2align=2
	local.get	0
	i32.const	.L__unnamed_2
	i32.store	8
	local.get	0
	i32.const	8
	i32.add 
	call	_ZN3std2io5stdio6_print17h452c99b34f4cbd02E
	local.get	1
	i32.const	0
	i32.store	0
	local.get	0
	i32.const	.L__unnamed_1
	i32.store	24
	local.get	0
	i64.const	1
	i64.store	12:p2align=2
	local.get	0
	i32.const	.L__unnamed_2
	i32.store	8
	local.get	0
	i32.const	8
	i32.add 
	call	_ZN3std2io5stdio6_print17h452c99b34f4cbd02E
	local.get	1
	i32.const	0
	i32.store	0
	local.get	0
	i32.const	.L__unnamed_1
	i32.store	24
	local.get	0
	i64.const	1
	i64.store	12:p2align=2
	local.get	0
	i32.const	.L__unnamed_2
	i32.store	8
	local.get	0
	i32.const	8
	i32.add 
	call	_ZN3std2io5stdio6_print17h452c99b34f4cbd02E
	local.get	1
	i32.const	0
	i32.store	0
	local.get	0
	i32.const	.L__unnamed_1
	i32.store	24
	local.get	0
	i64.const	1
	i64.store	12:p2align=2
	local.get	0
	i32.const	.L__unnamed_2
	i32.store	8
	global.get	__tls_base
	local.set	2
	local.get	0
	i32.const	8
	i32.add 
	call	_ZN3std2io5stdio6_print17h452c99b34f4cbd02E
	block   	
	block   	
	local.get	2
	i32.const	_ZN3tls4VAR17__getit5__KEY17hf0a0b0a039c53e14E@TLSREL
	i32.add 
	local.tee	2
	i32.load	0
	i32.const	1
	i32.ne  
	br_if   	0
	local.get	2
	i32.const	4
	i32.add 
	local.set	2
	br      	1
.LBB0_2:
	end_block
	call	_ZN3std6thread5local4fast12Key$LT$T$GT$14try_initialize17hcc86a33456781b12E
	local.tee	2
	br_if   	0
	i32.const	.L__unnamed_3
	i32.const	70
	local.get	0
	i32.const	8
	i32.add 
	i32.const	.L__unnamed_4
	i32.const	.L__unnamed_5
	call	_ZN4core6result13unwrap_failed17h4016779130cc2b21E
	unreachable
.LBB0_4:
	end_block
	local.get	1
	i32.const	1
	i32.store	0
	local.get	0
	i64.const	2
	i64.store	12:p2align=2
	local.get	0
	i32.const	.L__unnamed_6
	i32.store	8
	local.get	2
	i32.load	0
	local.set	1
	local.get	0
	i32.const	_ZN4core3fmt3num3imp52_$LT$impl$u20$core..fmt..Display$u20$for$u20$i32$GT$3fmt17h2dce79fe9c4168f4E
	i32.store	36
	local.get	0
	local.get	1
	i32.store	44
	local.get	0
	local.get	0
	i32.const	32
	i32.add 
	i32.store	24
	local.get	0
	local.get	0
	i32.const	44
	i32.add 
	i32.store	32
	local.get	0
	i32.const	8
	i32.add 
	call	_ZN3std2io5stdio6_print17h452c99b34f4cbd02E
	#APP
	#NO_APP
	local.get	0
	i32.const	48
	i32.add 
	global.set	__stack_pointer
	end_function
.Lfunc_end0:
	.size	_ZN3std10sys_common9backtrace28__rust_begin_short_backtrace17h72a51f47e878e5f0E, .Lfunc_end0-_ZN3std10sys_common9backtrace28__rust_begin_short_backtrace17h72a51f47e878e5f0E

	.section	.text._ZN3std10sys_common9backtrace28__rust_begin_short_backtrace17h783e038309c68e2cE,"",@
	.type	_ZN3std10sys_common9backtrace28__rust_begin_short_backtrace17h783e038309c68e2cE,@function
_ZN3std10sys_common9backtrace28__rust_begin_short_backtrace17h783e038309c68e2cE:
	.functype	_ZN3std10sys_common9backtrace28__rust_begin_short_backtrace17h783e038309c68e2cE (i32) -> ()
	local.get	0
	call_indirect	 () -> ()
	#APP
	#NO_APP
	end_function
.Lfunc_end1:
	.size	_ZN3std10sys_common9backtrace28__rust_begin_short_backtrace17h783e038309c68e2cE, .Lfunc_end1-_ZN3std10sys_common9backtrace28__rust_begin_short_backtrace17h783e038309c68e2cE

	.section	.text._ZN3std2rt10lang_start17h2a4c5f05aad6081eE,"",@
	.hidden	_ZN3std2rt10lang_start17h2a4c5f05aad6081eE
	.globl	_ZN3std2rt10lang_start17h2a4c5f05aad6081eE
	.type	_ZN3std2rt10lang_start17h2a4c5f05aad6081eE,@function
_ZN3std2rt10lang_start17h2a4c5f05aad6081eE:
	.functype	_ZN3std2rt10lang_start17h2a4c5f05aad6081eE (i32, i32, i32) -> (i32)
	.local  	i32
	global.get	__stack_pointer
	i32.const	16
	i32.sub 
	local.tee	3
	global.set	__stack_pointer
	local.get	3
	local.get	0
	i32.store	12
	local.get	3
	i32.const	12
	i32.add 
	i32.const	.L__unnamed_7
	local.get	1
	local.get	2
	call	_ZN3std2rt19lang_start_internal17ha9c168f62b8ed25bE
	local.set	1
	local.get	3
	i32.const	16
	i32.add 
	global.set	__stack_pointer
	local.get	1
	end_function
.Lfunc_end2:
	.size	_ZN3std2rt10lang_start17h2a4c5f05aad6081eE, .Lfunc_end2-_ZN3std2rt10lang_start17h2a4c5f05aad6081eE

	.section	".text._ZN3std2rt10lang_start28_$u7b$$u7b$closure$u7d$$u7d$17h6d7bb50d5fdbc37bE","",@
	.type	_ZN3std2rt10lang_start28_$u7b$$u7b$closure$u7d$$u7d$17h6d7bb50d5fdbc37bE,@function
_ZN3std2rt10lang_start28_$u7b$$u7b$closure$u7d$$u7d$17h6d7bb50d5fdbc37bE:
	.functype	_ZN3std2rt10lang_start28_$u7b$$u7b$closure$u7d$$u7d$17h6d7bb50d5fdbc37bE (i32) -> (i32)
	local.get	0
	i32.load	0
	call	_ZN3std10sys_common9backtrace28__rust_begin_short_backtrace17h783e038309c68e2cE
	i32.const	0
	end_function
.Lfunc_end3:
	.size	_ZN3std2rt10lang_start28_$u7b$$u7b$closure$u7d$$u7d$17h6d7bb50d5fdbc37bE, .Lfunc_end3-_ZN3std2rt10lang_start28_$u7b$$u7b$closure$u7d$$u7d$17h6d7bb50d5fdbc37bE

	.section	".text._ZN3std6thread5local4fast12Key$LT$T$GT$14try_initialize17hcc86a33456781b12E","",@
	.type	_ZN3std6thread5local4fast12Key$LT$T$GT$14try_initialize17hcc86a33456781b12E,@function
_ZN3std6thread5local4fast12Key$LT$T$GT$14try_initialize17hcc86a33456781b12E:
	.functype	_ZN3std6thread5local4fast12Key$LT$T$GT$14try_initialize17hcc86a33456781b12E () -> (i32)
	.local  	i32
	global.get	__tls_base
	i32.const	_ZN3tls4VAR17__getit5__KEY17hf0a0b0a039c53e14E@TLSREL
	i32.add 
	local.tee	0
	i64.const	4294967297
	i64.store	0:p2align=2
	local.get	0
	i32.const	4
	i32.add 
	end_function
.Lfunc_end4:
	.size	_ZN3std6thread5local4fast12Key$LT$T$GT$14try_initialize17hcc86a33456781b12E, .Lfunc_end4-_ZN3std6thread5local4fast12Key$LT$T$GT$14try_initialize17hcc86a33456781b12E

	.section	".text._ZN4core3ops8function6FnOnce40call_once$u7b$$u7b$vtable.shim$u7d$$u7d$17hb27c4572b8351d7eE","",@
	.type	_ZN4core3ops8function6FnOnce40call_once$u7b$$u7b$vtable.shim$u7d$$u7d$17hb27c4572b8351d7eE,@function
_ZN4core3ops8function6FnOnce40call_once$u7b$$u7b$vtable.shim$u7d$$u7d$17hb27c4572b8351d7eE:
	.functype	_ZN4core3ops8function6FnOnce40call_once$u7b$$u7b$vtable.shim$u7d$$u7d$17hb27c4572b8351d7eE (i32) -> (i32)
	local.get	0
	i32.load	0
	call	_ZN3std10sys_common9backtrace28__rust_begin_short_backtrace17h783e038309c68e2cE
	i32.const	0
	end_function
.Lfunc_end5:
	.size	_ZN4core3ops8function6FnOnce40call_once$u7b$$u7b$vtable.shim$u7d$$u7d$17hb27c4572b8351d7eE, .Lfunc_end5-_ZN4core3ops8function6FnOnce40call_once$u7b$$u7b$vtable.shim$u7d$$u7d$17hb27c4572b8351d7eE

	.section	".text._ZN4core3ops8function6FnOnce40call_once$u7b$$u7b$vtable.shim$u7d$$u7d$17hbf7a79a0b3f677edE","",@
	.type	_ZN4core3ops8function6FnOnce40call_once$u7b$$u7b$vtable.shim$u7d$$u7d$17hbf7a79a0b3f677edE,@function
_ZN4core3ops8function6FnOnce40call_once$u7b$$u7b$vtable.shim$u7d$$u7d$17hbf7a79a0b3f677edE:
	.functype	_ZN4core3ops8function6FnOnce40call_once$u7b$$u7b$vtable.shim$u7d$$u7d$17hbf7a79a0b3f677edE (i32) -> ()
	.local  	i32, i32, i32, i32, i32, i32
	global.get	__stack_pointer
	i32.const	32
	i32.sub 
	local.tee	1
	global.set	__stack_pointer
	global.get	__tls_base
	i32.const	__THREW__@TLSREL
	i32.add 
	local.tee	2
	i32.const	0
	i32.store	0
	i32.const	_ZN3std6thread6Thread5cname17h1c84bb9c26beee7bE
	local.get	1
	i32.const	8
	i32.add 
	local.get	0
	call	invoke_vii
	local.get	2
	i32.load	0
	local.set	3
	local.get	2
	i32.const	0
	i32.store	0
	block   	
	block   	
	block   	
	block   	
	local.get	3
	i32.const	1
	i32.eq  
	br_if   	0
	block   	
	local.get	1
	i32.load	8
	local.tee	3
	i32.eqz
	br_if   	0
	local.get	1
	i32.load	12
	local.set	4
	global.get	__tls_base
	i32.const	__THREW__@TLSREL
	i32.add 
	local.tee	2
	i32.const	0
	i32.store	0
	i32.const	_ZN3std3sys4unix6thread6Thread8set_name17h9ae56d6c27199934E
	local.get	3
	local.get	4
	call	invoke_vii
	local.get	2
	i32.load	0
	local.set	3
	local.get	2
	i32.const	0
	i32.store	0
	local.get	3
	i32.const	1
	i32.eq  
	br_if   	1
.LBB6_3:
	end_block
	global.get	__tls_base
	i32.const	__THREW__@TLSREL
	i32.add 
	local.tee	2
	i32.const	0
	i32.store	0
	i32.const	_ZN3std2io5stdio18set_output_capture17h210ac67ea7bdfc46E
	local.get	0
	i32.load	4
	call	invoke_ii
	local.set	3
	local.get	2
	i32.load	0
	local.set	4
	local.get	2
	i32.const	0
	i32.store	0
	block   	
	local.get	4
	i32.const	1
	i32.eq  
	br_if   	0
	block   	
	local.get	3
	i32.eqz
	br_if   	0
	local.get	3
	i32.const	1
	i32.atomic.rmw.sub	0
	i32.const	1
	i32.ne  
	br_if   	0
	global.get	__tls_base
	local.set	2
	atomic.fence
	local.get	2
	i32.const	__THREW__@TLSREL
	i32.add 
	local.tee	2
	i32.const	0
	i32.store	0
	i32.const	_ZN5alloc4sync12Arc$LT$T$GT$9drop_slow17h0ed690f7864187afE
	local.get	3
	call	invoke_vi
	local.get	2
	i32.load	0
	local.set	3
	local.get	2
	i32.const	0
	i32.store	0
	local.get	3
	i32.const	1
	i32.eq  
	br_if   	1
.LBB6_7:
	end_block
	global.get	__tls_base
	i32.const	__THREW__@TLSREL
	i32.add 
	local.tee	2
	i32.const	0
	i32.store	0
	i32.const	_ZN3std3sys4unix6thread5guard7current17h39f6162cebf9ca9aE
	local.get	1
	i32.const	16
	i32.add 
	call	invoke_vi
	local.get	2
	i32.load	0
	local.set	3
	local.get	2
	i32.const	0
	i32.store	0
	local.get	3
	i32.const	1
	i32.eq  
	br_if   	0
	global.get	__tls_base
	local.set	2
	local.get	0
	i32.load	0
	local.set	3
	local.get	2
	i32.const	__THREW__@TLSREL
	i32.add 
	local.tee	2
	i32.const	0
	i32.store	0
	i32.const	_ZN3std10sys_common11thread_info3set17h21c677108822c0a3E
	local.get	1
	i32.const	16
	i32.add 
	local.get	3
	call	invoke_vii
	local.get	2
	i32.load	0
	local.set	3
	local.get	2
	i32.const	0
	i32.store	0
	local.get	3
	i32.const	1
	i32.eq  
	br_if   	2
	i32.const	0
	local.set	3
	global.get	__tls_base
	i32.const	__THREW__@TLSREL
	i32.add 
	local.tee	2
	i32.const	0
	i32.store	0
	i32.const	_ZN3std10sys_common9backtrace28__rust_begin_short_backtrace17h72a51f47e878e5f0E
	call	invoke_v
	local.get	2
	i32.load	0
	local.set	4
	local.get	2
	i32.const	0
	i32.store	0
	block   	
	block   	
	local.get	4
	i32.const	1
	i32.eq  
	br_if   	0
	br      	1
.LBB6_11:
	end_block
	global.get	__tls_base
	local.set	2
	i32.const	rust_eh_catch_typeinfo
	i32.const	0
	call	__cxa_find_matching_catch_4
	local.set	3
	call	getTempRet0
	local.set	4
	i32.const	rust_eh_catch_typeinfo
	call	llvm_eh_typeid_for
	local.set	5
	local.get	2
	i32.const	__THREW__@TLSREL
	i32.add 
	local.tee	2
	i32.const	0
	i32.store	0
	local.get	1
	local.get	3
	i32.store	16
	local.get	1
	local.get	4
	local.get	5
	i32.eq  
	i32.store8	20
	i32.const	_ZN3std9panicking3try7cleanup17h42c95b2463000bebE
	local.get	1
	local.get	1
	i32.const	16
	i32.add 
	call	invoke_vii
	local.get	2
	i32.load	0
	local.set	3
	local.get	2
	i32.const	0
	i32.store	0
	local.get	3
	i32.const	1
	i32.eq  
	br_if   	3
	local.get	1
	i32.load	4
	local.set	4
	local.get	1
	i32.load	0
	local.set	3
.LBB6_13:
	end_block
	block   	
	local.get	0
	i32.load	8
	local.tee	2
	i32.load	8
	i32.eqz
	br_if   	0
	local.get	2
	i32.load	12
	local.tee	6
	i32.eqz
	br_if   	0
	global.get	__tls_base
	i32.const	__THREW__@TLSREL
	i32.add 
	local.tee	5
	i32.const	0
	i32.store	0
	local.get	2
	i32.load	16
	i32.load	0
	local.get	6
	call	invoke_vi
	local.get	5
	i32.load	0
	local.set	6
	local.get	5
	i32.const	0
	i32.store	0
	local.get	6
	i32.const	1
	i32.eq  
	br_if   	4
	local.get	2
	i32.load	16
	local.tee	5
	i32.load	4
	local.tee	6
	i32.eqz
	br_if   	0
	local.get	2
	i32.load	12
	local.get	6
	local.get	5
	i32.load	8
	call	__rust_dealloc
.LBB6_18:
	end_block
	local.get	2
	local.get	4
	i32.store	16
	local.get	2
	local.get	3
	i32.store	12
	local.get	2
	i32.const	1
	i32.store	8
	block   	
	local.get	0
	i32.load	8
	i32.const	1
	i32.atomic.rmw.sub	0
	i32.const	1
	i32.ne  
	br_if   	0
	atomic.fence
	local.get	0
	i32.load	8
	call	_ZN5alloc4sync12Arc$LT$T$GT$9drop_slow17ha4307a772e8cc4c6E
.LBB6_20:
	end_block
	local.get	1
	i32.const	32
	i32.add 
	global.set	__stack_pointer
	return
.LBB6_21:
	end_block
	call	__cxa_find_matching_catch_2
	local.set	1
	call	getTempRet0
	drop
	local.get	0
	call	_ZN4core3ptr40drop_in_place$LT$std..thread..Thread$GT$17hdd8c6526cf96b5bfE
	br      	3
.LBB6_22:
	end_block
	call	__cxa_find_matching_catch_2
	local.set	1
	call	getTempRet0
	drop
	local.get	0
	call	_ZN4core3ptr40drop_in_place$LT$std..thread..Thread$GT$17hdd8c6526cf96b5bfE
	local.get	0
	i32.const	4
	i32.add 
	call	_ZN4core3ptr129drop_in_place$LT$core..option..Option$LT$alloc..sync..Arc$LT$std..sync..mutex..Mutex$LT$alloc..vec..Vec$LT$u8$GT$$GT$$GT$$GT$$GT$17h0b55e70c3662d852E
	br      	2
.LBB6_23:
	end_block
	call	__cxa_find_matching_catch_2
	local.set	1
	call	getTempRet0
	drop
	br      	1
.LBB6_24:
	end_block
	call	__cxa_find_matching_catch_2
	local.set	1
	call	getTempRet0
	drop
	local.get	2
	i32.load	12
	local.get	2
	i32.load	16
	call	_ZN5alloc5alloc8box_free17h1532118aded4f4a7E
	local.get	2
	local.get	4
	i32.store	16
	local.get	2
	local.get	3
	i32.store	12
	local.get	2
	i32.const	1
	i32.store	8
.LBB6_25:
	end_block
	local.get	0
	i32.const	8
	i32.add 
	call	_ZN4core3ptr212drop_in_place$LT$alloc..sync..Arc$LT$core..cell..UnsafeCell$LT$core..option..Option$LT$core..result..Result$LT$$LP$$RP$$C$alloc..boxed..Box$LT$dyn$u20$core..any..Any$u2b$core..marker..Send$GT$$GT$$GT$$GT$$GT$$GT$17h482a81bf3f178f7bE
	local.get	1
	call	__resumeException
	unreachable
	end_function
.Lfunc_end6:
	.size	_ZN4core3ops8function6FnOnce40call_once$u7b$$u7b$vtable.shim$u7d$$u7d$17hbf7a79a0b3f677edE, .Lfunc_end6-_ZN4core3ops8function6FnOnce40call_once$u7b$$u7b$vtable.shim$u7d$$u7d$17hbf7a79a0b3f677edE

	.section	".text._ZN4core3ptr113drop_in_place$LT$std..thread..Builder..spawn_unchecked$LT$tls..xs$C$$LP$$RP$$GT$..$u7b$$u7b$closure$u7d$$u7d$$GT$17h5f1eddf0955464f3E","",@
	.type	_ZN4core3ptr113drop_in_place$LT$std..thread..Builder..spawn_unchecked$LT$tls..xs$C$$LP$$RP$$GT$..$u7b$$u7b$closure$u7d$$u7d$$GT$17h5f1eddf0955464f3E,@function
_ZN4core3ptr113drop_in_place$LT$std..thread..Builder..spawn_unchecked$LT$tls..xs$C$$LP$$RP$$GT$..$u7b$$u7b$closure$u7d$$u7d$$GT$17h5f1eddf0955464f3E:
	.functype	_ZN4core3ptr113drop_in_place$LT$std..thread..Builder..spawn_unchecked$LT$tls..xs$C$$LP$$RP$$GT$..$u7b$$u7b$closure$u7d$$u7d$$GT$17h5f1eddf0955464f3E (i32) -> ()
	.local  	i32, i32
	block   	
	local.get	0
	i32.load	0
	i32.const	1
	i32.atomic.rmw.sub	0
	i32.const	1
	i32.ne  
	br_if   	0
	atomic.fence
	local.get	0
	i32.load	0
	call	_ZN5alloc4sync12Arc$LT$T$GT$9drop_slow17hc808dcd44ef5f435E
.LBB7_2:
	end_block
	block   	
	block   	
	local.get	0
	i32.load	4
	local.tee	1
	i32.eqz
	br_if   	0
	local.get	1
	i32.const	1
	i32.atomic.rmw.sub	0
	i32.const	1
	i32.ne  
	br_if   	0
	global.get	__tls_base
	local.set	1
	atomic.fence
	local.get	1
	i32.const	__THREW__@TLSREL
	i32.add 
	local.tee	1
	i32.const	0
	i32.store	0
	i32.const	_ZN5alloc4sync12Arc$LT$T$GT$9drop_slow17h0ed690f7864187afE
	local.get	0
	i32.load	4
	call	invoke_vi
	local.get	1
	i32.load	0
	local.set	2
	local.get	1
	i32.const	0
	i32.store	0
	local.get	2
	i32.const	1
	i32.eq  
	br_if   	1
.LBB7_5:
	end_block
	block   	
	local.get	0
	i32.load	8
	i32.const	1
	i32.atomic.rmw.sub	0
	i32.const	1
	i32.ne  
	br_if   	0
	atomic.fence
	local.get	0
	i32.load	8
	call	_ZN5alloc4sync12Arc$LT$T$GT$9drop_slow17ha4307a772e8cc4c6E
.LBB7_7:
	end_block
	return
.LBB7_8:
	end_block
	call	__cxa_find_matching_catch_2
	local.set	1
	call	getTempRet0
	drop
	local.get	0
	i32.const	8
	i32.add 
	call	_ZN4core3ptr212drop_in_place$LT$alloc..sync..Arc$LT$core..cell..UnsafeCell$LT$core..option..Option$LT$core..result..Result$LT$$LP$$RP$$C$alloc..boxed..Box$LT$dyn$u20$core..any..Any$u2b$core..marker..Send$GT$$GT$$GT$$GT$$GT$$GT$17h482a81bf3f178f7bE
	local.get	1
	call	__resumeException
	unreachable
	end_function
.Lfunc_end7:
	.size	_ZN4core3ptr113drop_in_place$LT$std..thread..Builder..spawn_unchecked$LT$tls..xs$C$$LP$$RP$$GT$..$u7b$$u7b$closure$u7d$$u7d$$GT$17h5f1eddf0955464f3E, .Lfunc_end7-_ZN4core3ptr113drop_in_place$LT$std..thread..Builder..spawn_unchecked$LT$tls..xs$C$$LP$$RP$$GT$..$u7b$$u7b$closure$u7d$$u7d$$GT$17h5f1eddf0955464f3E

	.section	".text._ZN4core3ptr129drop_in_place$LT$core..option..Option$LT$alloc..sync..Arc$LT$std..sync..mutex..Mutex$LT$alloc..vec..Vec$LT$u8$GT$$GT$$GT$$GT$$GT$17h0b55e70c3662d852E","",@
	.type	_ZN4core3ptr129drop_in_place$LT$core..option..Option$LT$alloc..sync..Arc$LT$std..sync..mutex..Mutex$LT$alloc..vec..Vec$LT$u8$GT$$GT$$GT$$GT$$GT$17h0b55e70c3662d852E,@function
_ZN4core3ptr129drop_in_place$LT$core..option..Option$LT$alloc..sync..Arc$LT$std..sync..mutex..Mutex$LT$alloc..vec..Vec$LT$u8$GT$$GT$$GT$$GT$$GT$17h0b55e70c3662d852E:
	.functype	_ZN4core3ptr129drop_in_place$LT$core..option..Option$LT$alloc..sync..Arc$LT$std..sync..mutex..Mutex$LT$alloc..vec..Vec$LT$u8$GT$$GT$$GT$$GT$$GT$17h0b55e70c3662d852E (i32) -> ()
	.local  	i32
	block   	
	local.get	0
	i32.load	0
	local.tee	1
	i32.eqz
	br_if   	0
	local.get	1
	i32.const	1
	i32.atomic.rmw.sub	0
	i32.const	1
	i32.ne  
	br_if   	0
	atomic.fence
	local.get	0
	i32.load	0
	call	_ZN5alloc4sync12Arc$LT$T$GT$9drop_slow17h0ed690f7864187afE
.LBB8_3:
	end_block
	end_function
.Lfunc_end8:
	.size	_ZN4core3ptr129drop_in_place$LT$core..option..Option$LT$alloc..sync..Arc$LT$std..sync..mutex..Mutex$LT$alloc..vec..Vec$LT$u8$GT$$GT$$GT$$GT$$GT$17h0b55e70c3662d852E, .Lfunc_end8-_ZN4core3ptr129drop_in_place$LT$core..option..Option$LT$alloc..sync..Arc$LT$std..sync..mutex..Mutex$LT$alloc..vec..Vec$LT$u8$GT$$GT$$GT$$GT$$GT$17h0b55e70c3662d852E

	.section	".text._ZN4core3ptr212drop_in_place$LT$alloc..sync..Arc$LT$core..cell..UnsafeCell$LT$core..option..Option$LT$core..result..Result$LT$$LP$$RP$$C$alloc..boxed..Box$LT$dyn$u20$core..any..Any$u2b$core..marker..Send$GT$$GT$$GT$$GT$$GT$$GT$17h482a81bf3f178f7bE","",@
	.type	_ZN4core3ptr212drop_in_place$LT$alloc..sync..Arc$LT$core..cell..UnsafeCell$LT$core..option..Option$LT$core..result..Result$LT$$LP$$RP$$C$alloc..boxed..Box$LT$dyn$u20$core..any..Any$u2b$core..marker..Send$GT$$GT$$GT$$GT$$GT$$GT$17h482a81bf3f178f7bE,@function
_ZN4core3ptr212drop_in_place$LT$alloc..sync..Arc$LT$core..cell..UnsafeCell$LT$core..option..Option$LT$core..result..Result$LT$$LP$$RP$$C$alloc..boxed..Box$LT$dyn$u20$core..any..Any$u2b$core..marker..Send$GT$$GT$$GT$$GT$$GT$$GT$17h482a81bf3f178f7bE:
	.functype	_ZN4core3ptr212drop_in_place$LT$alloc..sync..Arc$LT$core..cell..UnsafeCell$LT$core..option..Option$LT$core..result..Result$LT$$LP$$RP$$C$alloc..boxed..Box$LT$dyn$u20$core..any..Any$u2b$core..marker..Send$GT$$GT$$GT$$GT$$GT$$GT$17h482a81bf3f178f7bE (i32) -> ()
	block   	
	local.get	0
	i32.load	0
	i32.const	1
	i32.atomic.rmw.sub	0
	i32.const	1
	i32.ne  
	br_if   	0
	atomic.fence
	local.get	0
	i32.load	0
	call	_ZN5alloc4sync12Arc$LT$T$GT$9drop_slow17ha4307a772e8cc4c6E
.LBB9_2:
	end_block
	end_function
.Lfunc_end9:
	.size	_ZN4core3ptr212drop_in_place$LT$alloc..sync..Arc$LT$core..cell..UnsafeCell$LT$core..option..Option$LT$core..result..Result$LT$$LP$$RP$$C$alloc..boxed..Box$LT$dyn$u20$core..any..Any$u2b$core..marker..Send$GT$$GT$$GT$$GT$$GT$$GT$17h482a81bf3f178f7bE, .Lfunc_end9-_ZN4core3ptr212drop_in_place$LT$alloc..sync..Arc$LT$core..cell..UnsafeCell$LT$core..option..Option$LT$core..result..Result$LT$$LP$$RP$$C$alloc..boxed..Box$LT$dyn$u20$core..any..Any$u2b$core..marker..Send$GT$$GT$$GT$$GT$$GT$$GT$17h482a81bf3f178f7bE

	.section	".text._ZN4core3ptr40drop_in_place$LT$std..thread..Thread$GT$17hdd8c6526cf96b5bfE","",@
	.type	_ZN4core3ptr40drop_in_place$LT$std..thread..Thread$GT$17hdd8c6526cf96b5bfE,@function
_ZN4core3ptr40drop_in_place$LT$std..thread..Thread$GT$17hdd8c6526cf96b5bfE:
	.functype	_ZN4core3ptr40drop_in_place$LT$std..thread..Thread$GT$17hdd8c6526cf96b5bfE (i32) -> ()
	block   	
	local.get	0
	i32.load	0
	i32.const	1
	i32.atomic.rmw.sub	0
	i32.const	1
	i32.ne  
	br_if   	0
	atomic.fence
	local.get	0
	i32.load	0
	call	_ZN5alloc4sync12Arc$LT$T$GT$9drop_slow17hc808dcd44ef5f435E
.LBB10_2:
	end_block
	end_function
.Lfunc_end10:
	.size	_ZN4core3ptr40drop_in_place$LT$std..thread..Thread$GT$17hdd8c6526cf96b5bfE, .Lfunc_end10-_ZN4core3ptr40drop_in_place$LT$std..thread..Thread$GT$17hdd8c6526cf96b5bfE

	.section	".text._ZN4core3ptr42drop_in_place$LT$std..io..error..Error$GT$17hbea4e2bb461dc54eE","",@
	.type	_ZN4core3ptr42drop_in_place$LT$std..io..error..Error$GT$17hbea4e2bb461dc54eE,@function
_ZN4core3ptr42drop_in_place$LT$std..io..error..Error$GT$17hbea4e2bb461dc54eE:
	.functype	_ZN4core3ptr42drop_in_place$LT$std..io..error..Error$GT$17hbea4e2bb461dc54eE (i32) -> ()
	.local  	i32, i32, i32
	block   	
	block   	
	local.get	0
	i32.load8_u	0
	i32.const	3
	i32.ne  
	br_if   	0
	local.get	0
	i32.const	4
	i32.add 
	i32.load	0
	local.tee	1
	i32.load	0
	local.set	2
	global.get	__tls_base
	i32.const	__THREW__@TLSREL
	i32.add 
	local.tee	3
	i32.const	0
	i32.store	0
	local.get	1
	i32.load	4
	i32.load	0
	local.get	2
	call	invoke_vi
	local.get	3
	i32.load	0
	local.set	2
	local.get	3
	i32.const	0
	i32.store	0
	local.get	2
	i32.const	1
	i32.eq  
	br_if   	1
	block   	
	local.get	1
	i32.load	4
	local.tee	3
	i32.load	4
	local.tee	2
	i32.eqz
	br_if   	0
	local.get	1
	i32.load	0
	local.get	2
	local.get	3
	i32.load	8
	call	__rust_dealloc
.LBB11_4:
	end_block
	local.get	0
	i32.load	4
	i32.const	12
	i32.const	4
	call	__rust_dealloc
.LBB11_5:
	end_block
	return
.LBB11_6:
	end_block
	call	__cxa_find_matching_catch_2
	local.set	3
	call	getTempRet0
	drop
	local.get	1
	i32.load	0
	local.get	1
	i32.load	4
	call	_ZN5alloc5alloc8box_free17h1532118aded4f4a7E
	local.get	0
	i32.load	4
	call	_ZN5alloc5alloc8box_free17hbfb750caac89b583E
	local.get	3
	call	__resumeException
	unreachable
	end_function
.Lfunc_end11:
	.size	_ZN4core3ptr42drop_in_place$LT$std..io..error..Error$GT$17hbea4e2bb461dc54eE, .Lfunc_end11-_ZN4core3ptr42drop_in_place$LT$std..io..error..Error$GT$17hbea4e2bb461dc54eE

	.section	".text._ZN4core3ptr46drop_in_place$LT$std..ffi..c_str..NulError$GT$17hd1d295e46a8a7bbeE","",@
	.type	_ZN4core3ptr46drop_in_place$LT$std..ffi..c_str..NulError$GT$17hd1d295e46a8a7bbeE,@function
_ZN4core3ptr46drop_in_place$LT$std..ffi..c_str..NulError$GT$17hd1d295e46a8a7bbeE:
	.functype	_ZN4core3ptr46drop_in_place$LT$std..ffi..c_str..NulError$GT$17hd1d295e46a8a7bbeE (i32) -> ()
	.local  	i32
	block   	
	local.get	0
	i32.const	8
	i32.add 
	i32.load	0
	local.tee	1
	i32.eqz
	br_if   	0
	local.get	0
	i32.const	4
	i32.add 
	i32.load	0
	local.tee	0
	i32.eqz
	br_if   	0
	local.get	0
	local.get	1
	i32.const	1
	call	__rust_dealloc
.LBB12_3:
	end_block
	end_function
.Lfunc_end12:
	.size	_ZN4core3ptr46drop_in_place$LT$std..ffi..c_str..NulError$GT$17hd1d295e46a8a7bbeE, .Lfunc_end12-_ZN4core3ptr46drop_in_place$LT$std..ffi..c_str..NulError$GT$17hd1d295e46a8a7bbeE

	.section	".text._ZN4core3ptr52drop_in_place$LT$std..thread..local..AccessError$GT$17h674285053afceec0E","",@
	.type	_ZN4core3ptr52drop_in_place$LT$std..thread..local..AccessError$GT$17h674285053afceec0E,@function
_ZN4core3ptr52drop_in_place$LT$std..thread..local..AccessError$GT$17h674285053afceec0E:
	.functype	_ZN4core3ptr52drop_in_place$LT$std..thread..local..AccessError$GT$17h674285053afceec0E (i32) -> ()
	end_function
.Lfunc_end13:
	.size	_ZN4core3ptr52drop_in_place$LT$std..thread..local..AccessError$GT$17h674285053afceec0E, .Lfunc_end13-_ZN4core3ptr52drop_in_place$LT$std..thread..local..AccessError$GT$17h674285053afceec0E

	.section	".text._ZN4core3ptr60drop_in_place$LT$std..thread..JoinHandle$LT$$LP$$RP$$GT$$GT$17hcfba2ed713450317E","",@
	.type	_ZN4core3ptr60drop_in_place$LT$std..thread..JoinHandle$LT$$LP$$RP$$GT$$GT$17hcfba2ed713450317E,@function
_ZN4core3ptr60drop_in_place$LT$std..thread..JoinHandle$LT$$LP$$RP$$GT$$GT$17hcfba2ed713450317E:
	.functype	_ZN4core3ptr60drop_in_place$LT$std..thread..JoinHandle$LT$$LP$$RP$$GT$$GT$17hcfba2ed713450317E (i32) -> ()
	.local  	i32, i32
	block   	
	block   	
	local.get	0
	i32.load	0
	i32.eqz
	br_if   	0
	global.get	__tls_base
	i32.const	__THREW__@TLSREL
	i32.add 
	local.tee	1
	i32.const	0
	i32.store	0
	i32.const	_ZN72_$LT$std..sys..unix..thread..Thread$u20$as$u20$core..ops..drop..Drop$GT$4drop17hb430e98fa6ff457cE
	local.get	0
	i32.const	4
	i32.add 
	call	invoke_vi
	local.get	1
	i32.load	0
	local.set	2
	local.get	1
	i32.const	0
	i32.store	0
	local.get	2
	i32.const	1
	i32.eq  
	br_if   	1
.LBB14_2:
	end_block
	block   	
	local.get	0
	i32.load	8
	i32.const	1
	i32.atomic.rmw.sub	0
	i32.const	1
	i32.ne  
	br_if   	0
	atomic.fence
	local.get	0
	i32.load	8
	call	_ZN5alloc4sync12Arc$LT$T$GT$9drop_slow17hc808dcd44ef5f435E
.LBB14_4:
	end_block
	block   	
	local.get	0
	i32.load	12
	i32.const	1
	i32.atomic.rmw.sub	0
	i32.const	1
	i32.ne  
	br_if   	0
	atomic.fence
	local.get	0
	i32.load	12
	call	_ZN5alloc4sync12Arc$LT$T$GT$9drop_slow17ha4307a772e8cc4c6E
.LBB14_6:
	end_block
	return
.LBB14_7:
	end_block
	call	__cxa_find_matching_catch_2
	local.set	1
	call	getTempRet0
	drop
	local.get	0
	i32.const	8
	i32.add 
	call	_ZN4core3ptr40drop_in_place$LT$std..thread..Thread$GT$17hdd8c6526cf96b5bfE
	local.get	0
	i32.const	12
	i32.add 
	call	_ZN4core3ptr212drop_in_place$LT$alloc..sync..Arc$LT$core..cell..UnsafeCell$LT$core..option..Option$LT$core..result..Result$LT$$LP$$RP$$C$alloc..boxed..Box$LT$dyn$u20$core..any..Any$u2b$core..marker..Send$GT$$GT$$GT$$GT$$GT$$GT$17h482a81bf3f178f7bE
	local.get	1
	call	__resumeException
	unreachable
	end_function
.Lfunc_end14:
	.size	_ZN4core3ptr60drop_in_place$LT$std..thread..JoinHandle$LT$$LP$$RP$$GT$$GT$17hcfba2ed713450317E, .Lfunc_end14-_ZN4core3ptr60drop_in_place$LT$std..thread..JoinHandle$LT$$LP$$RP$$GT$$GT$17hcfba2ed713450317E

	.section	".text._ZN4core3ptr70drop_in_place$LT$core..option..Option$LT$alloc..string..String$GT$$GT$17hc02b1bdd86a9767fE","",@
	.type	_ZN4core3ptr70drop_in_place$LT$core..option..Option$LT$alloc..string..String$GT$$GT$17hc02b1bdd86a9767fE,@function
_ZN4core3ptr70drop_in_place$LT$core..option..Option$LT$alloc..string..String$GT$$GT$17hc02b1bdd86a9767fE:
	.functype	_ZN4core3ptr70drop_in_place$LT$core..option..Option$LT$alloc..string..String$GT$$GT$17hc02b1bdd86a9767fE (i32) -> ()
	.local  	i32
	block   	
	local.get	0
	i32.load	0
	local.tee	1
	i32.eqz
	br_if   	0
	local.get	0
	i32.const	4
	i32.add 
	i32.load	0
	local.tee	0
	i32.eqz
	br_if   	0
	local.get	1
	local.get	0
	i32.const	1
	call	__rust_dealloc
.LBB15_3:
	end_block
	end_function
.Lfunc_end15:
	.size	_ZN4core3ptr70drop_in_place$LT$core..option..Option$LT$alloc..string..String$GT$$GT$17hc02b1bdd86a9767fE, .Lfunc_end15-_ZN4core3ptr70drop_in_place$LT$core..option..Option$LT$alloc..string..String$GT$$GT$17hc02b1bdd86a9767fE

	.section	".text._ZN4core3ptr74drop_in_place$LT$alloc..boxed..Box$LT$std..sys..unix..mutex..Mutex$GT$$GT$17hcf5de256a2d5550fE","",@
	.type	_ZN4core3ptr74drop_in_place$LT$alloc..boxed..Box$LT$std..sys..unix..mutex..Mutex$GT$$GT$17hcf5de256a2d5550fE,@function
_ZN4core3ptr74drop_in_place$LT$alloc..boxed..Box$LT$std..sys..unix..mutex..Mutex$GT$$GT$17hcf5de256a2d5550fE:
	.functype	_ZN4core3ptr74drop_in_place$LT$alloc..boxed..Box$LT$std..sys..unix..mutex..Mutex$GT$$GT$17hcf5de256a2d5550fE (i32) -> ()
	local.get	0
	i32.load	0
	i32.const	28
	i32.const	4
	call	__rust_dealloc
	end_function
.Lfunc_end16:
	.size	_ZN4core3ptr74drop_in_place$LT$alloc..boxed..Box$LT$std..sys..unix..mutex..Mutex$GT$$GT$17hcf5de256a2d5550fE, .Lfunc_end16-_ZN4core3ptr74drop_in_place$LT$alloc..boxed..Box$LT$std..sys..unix..mutex..Mutex$GT$$GT$17hcf5de256a2d5550fE

	.section	".text._ZN4core3ptr76drop_in_place$LT$core..cell..UnsafeCell$LT$alloc..vec..Vec$LT$u8$GT$$GT$$GT$17h8433e5753f8bbc39E","",@
	.type	_ZN4core3ptr76drop_in_place$LT$core..cell..UnsafeCell$LT$alloc..vec..Vec$LT$u8$GT$$GT$$GT$17h8433e5753f8bbc39E,@function
_ZN4core3ptr76drop_in_place$LT$core..cell..UnsafeCell$LT$alloc..vec..Vec$LT$u8$GT$$GT$$GT$17h8433e5753f8bbc39E:
	.functype	_ZN4core3ptr76drop_in_place$LT$core..cell..UnsafeCell$LT$alloc..vec..Vec$LT$u8$GT$$GT$$GT$17h8433e5753f8bbc39E (i32) -> ()
	.local  	i32
	block   	
	local.get	0
	i32.const	4
	i32.add 
	i32.load	0
	local.tee	1
	i32.eqz
	br_if   	0
	local.get	0
	i32.load	0
	local.tee	0
	i32.eqz
	br_if   	0
	local.get	0
	local.get	1
	i32.const	1
	call	__rust_dealloc
.LBB17_3:
	end_block
	end_function
.Lfunc_end17:
	.size	_ZN4core3ptr76drop_in_place$LT$core..cell..UnsafeCell$LT$alloc..vec..Vec$LT$u8$GT$$GT$$GT$17h8433e5753f8bbc39E, .Lfunc_end17-_ZN4core3ptr76drop_in_place$LT$core..cell..UnsafeCell$LT$alloc..vec..Vec$LT$u8$GT$$GT$$GT$17h8433e5753f8bbc39E

	.section	".text._ZN4core3ptr91drop_in_place$LT$alloc..boxed..Box$LT$dyn$u20$core..any..Any$u2b$core..marker..Send$GT$$GT$17h9a86e025400bcb81E","",@
	.type	_ZN4core3ptr91drop_in_place$LT$alloc..boxed..Box$LT$dyn$u20$core..any..Any$u2b$core..marker..Send$GT$$GT$17h9a86e025400bcb81E,@function
_ZN4core3ptr91drop_in_place$LT$alloc..boxed..Box$LT$dyn$u20$core..any..Any$u2b$core..marker..Send$GT$$GT$17h9a86e025400bcb81E:
	.functype	_ZN4core3ptr91drop_in_place$LT$alloc..boxed..Box$LT$dyn$u20$core..any..Any$u2b$core..marker..Send$GT$$GT$17h9a86e025400bcb81E (i32) -> ()
	.local  	i32, i32
	global.get	__tls_base
	local.set	1
	local.get	0
	i32.load	0
	local.set	2
	local.get	1
	i32.const	__THREW__@TLSREL
	i32.add 
	local.tee	1
	i32.const	0
	i32.store	0
	local.get	0
	i32.load	4
	i32.load	0
	local.get	2
	call	invoke_vi
	local.get	1
	i32.load	0
	local.set	2
	local.get	1
	i32.const	0
	i32.store	0
	block   	
	local.get	2
	i32.const	1
	i32.eq  
	br_if   	0
	block   	
	local.get	0
	i32.load	4
	local.tee	1
	i32.load	4
	local.tee	2
	i32.eqz
	br_if   	0
	local.get	0
	i32.load	0
	local.get	2
	local.get	1
	i32.load	8
	call	__rust_dealloc
.LBB18_3:
	end_block
	return
.LBB18_4:
	end_block
	call	__cxa_find_matching_catch_2
	local.set	1
	call	getTempRet0
	drop
	local.get	0
	i32.load	0
	local.get	0
	i32.load	4
	call	_ZN5alloc5alloc8box_free17h1532118aded4f4a7E
	local.get	1
	call	__resumeException
	unreachable
	end_function
.Lfunc_end18:
	.size	_ZN4core3ptr91drop_in_place$LT$alloc..boxed..Box$LT$dyn$u20$core..any..Any$u2b$core..marker..Send$GT$$GT$17h9a86e025400bcb81E, .Lfunc_end18-_ZN4core3ptr91drop_in_place$LT$alloc..boxed..Box$LT$dyn$u20$core..any..Any$u2b$core..marker..Send$GT$$GT$17h9a86e025400bcb81E

	.section	".text._ZN5alloc4sync12Arc$LT$T$GT$9drop_slow17h0ed690f7864187afE","",@
	.type	_ZN5alloc4sync12Arc$LT$T$GT$9drop_slow17h0ed690f7864187afE,@function
_ZN5alloc4sync12Arc$LT$T$GT$9drop_slow17h0ed690f7864187afE:
	.functype	_ZN5alloc4sync12Arc$LT$T$GT$9drop_slow17h0ed690f7864187afE (i32) -> ()
	.local  	i32, i32, i32
	global.get	__tls_base
	i32.const	__THREW__@TLSREL
	i32.add 
	local.tee	1
	i32.const	0
	i32.store	0
	i32.const	_ZN78_$LT$std..sys_common..mutex..MovableMutex$u20$as$u20$core..ops..drop..Drop$GT$4drop17h0bc25ff92745a84dE
	local.get	0
	i32.const	8
	i32.add 
	local.tee	2
	call	invoke_vi
	local.get	1
	i32.load	0
	local.set	3
	local.get	1
	i32.const	0
	i32.store	0
	block   	
	local.get	3
	i32.const	1
	i32.eq  
	br_if   	0
	local.get	0
	i32.load	8
	i32.const	28
	i32.const	4
	call	__rust_dealloc
	block   	
	local.get	0
	i32.const	20
	i32.add 
	i32.load	0
	local.tee	1
	i32.eqz
	br_if   	0
	local.get	0
	i32.load	16
	local.tee	3
	i32.eqz
	br_if   	0
	local.get	3
	local.get	1
	i32.const	1
	call	__rust_dealloc
.LBB19_4:
	end_block
	block   	
	local.get	0
	i32.const	-1
	i32.eq  
	br_if   	0
	local.get	0
	i32.const	1
	i32.atomic.rmw.sub	4
	i32.const	1
	i32.ne  
	br_if   	0
	atomic.fence
	local.get	0
	i32.const	28
	i32.const	4
	call	__rust_dealloc
.LBB19_7:
	end_block
	return
.LBB19_8:
	end_block
	call	__cxa_find_matching_catch_2
	local.set	1
	call	getTempRet0
	drop
	local.get	2
	call	_ZN4core3ptr74drop_in_place$LT$alloc..boxed..Box$LT$std..sys..unix..mutex..Mutex$GT$$GT$17hcf5de256a2d5550fE
	local.get	0
	i32.const	16
	i32.add 
	call	_ZN4core3ptr76drop_in_place$LT$core..cell..UnsafeCell$LT$alloc..vec..Vec$LT$u8$GT$$GT$$GT$17h8433e5753f8bbc39E
	local.get	1
	call	__resumeException
	unreachable
	end_function
.Lfunc_end19:
	.size	_ZN5alloc4sync12Arc$LT$T$GT$9drop_slow17h0ed690f7864187afE, .Lfunc_end19-_ZN5alloc4sync12Arc$LT$T$GT$9drop_slow17h0ed690f7864187afE

	.section	".text._ZN5alloc4sync12Arc$LT$T$GT$9drop_slow17ha4307a772e8cc4c6E","",@
	.type	_ZN5alloc4sync12Arc$LT$T$GT$9drop_slow17ha4307a772e8cc4c6E,@function
_ZN5alloc4sync12Arc$LT$T$GT$9drop_slow17ha4307a772e8cc4c6E:
	.functype	_ZN5alloc4sync12Arc$LT$T$GT$9drop_slow17ha4307a772e8cc4c6E (i32) -> ()
	.local  	i32, i32
	block   	
	block   	
	local.get	0
	i32.load	8
	i32.eqz
	br_if   	0
	local.get	0
	i32.load	12
	local.tee	1
	i32.eqz
	br_if   	0
	global.get	__tls_base
	i32.const	__THREW__@TLSREL
	i32.add 
	local.tee	2
	i32.const	0
	i32.store	0
	local.get	0
	i32.load	16
	i32.load	0
	local.get	1
	call	invoke_vi
	local.get	2
	i32.load	0
	local.set	1
	local.get	2
	i32.const	0
	i32.store	0
	local.get	1
	i32.const	1
	i32.eq  
	br_if   	1
	local.get	0
	i32.load	16
	local.tee	2
	i32.load	4
	local.tee	1
	i32.eqz
	br_if   	0
	local.get	0
	i32.load	12
	local.get	1
	local.get	2
	i32.load	8
	call	__rust_dealloc
.LBB20_5:
	end_block
	block   	
	local.get	0
	i32.const	-1
	i32.eq  
	br_if   	0
	local.get	0
	i32.const	1
	i32.atomic.rmw.sub	4
	i32.const	1
	i32.ne  
	br_if   	0
	atomic.fence
	local.get	0
	i32.const	20
	i32.const	4
	call	__rust_dealloc
.LBB20_8:
	end_block
	return
.LBB20_9:
	end_block
	call	__cxa_find_matching_catch_2
	local.set	2
	call	getTempRet0
	drop
	local.get	0
	i32.load	12
	local.get	0
	i32.load	16
	call	_ZN5alloc5alloc8box_free17h1532118aded4f4a7E
	local.get	2
	call	__resumeException
	unreachable
	end_function
.Lfunc_end20:
	.size	_ZN5alloc4sync12Arc$LT$T$GT$9drop_slow17ha4307a772e8cc4c6E, .Lfunc_end20-_ZN5alloc4sync12Arc$LT$T$GT$9drop_slow17ha4307a772e8cc4c6E

	.section	".text._ZN5alloc4sync12Arc$LT$T$GT$9drop_slow17hc808dcd44ef5f435E","",@
	.type	_ZN5alloc4sync12Arc$LT$T$GT$9drop_slow17hc808dcd44ef5f435E,@function
_ZN5alloc4sync12Arc$LT$T$GT$9drop_slow17hc808dcd44ef5f435E:
	.functype	_ZN5alloc4sync12Arc$LT$T$GT$9drop_slow17hc808dcd44ef5f435E (i32) -> ()
	.local  	i32
	block   	
	local.get	0
	i32.load	16
	local.tee	1
	i32.eqz
	br_if   	0
	local.get	1
	i32.const	0
	i32.store8	0
	local.get	0
	i32.const	20
	i32.add 
	i32.load	0
	local.tee	1
	i32.eqz
	br_if   	0
	local.get	0
	i32.load	16
	local.get	1
	i32.const	1
	call	__rust_dealloc
.LBB21_3:
	end_block
	block   	
	local.get	0
	i32.const	-1
	i32.eq  
	br_if   	0
	local.get	0
	i32.const	1
	i32.atomic.rmw.sub	4
	i32.const	1
	i32.ne  
	br_if   	0
	atomic.fence
	local.get	0
	i32.const	32
	i32.const	8
	call	__rust_dealloc
.LBB21_6:
	end_block
	end_function
.Lfunc_end21:
	.size	_ZN5alloc4sync12Arc$LT$T$GT$9drop_slow17hc808dcd44ef5f435E, .Lfunc_end21-_ZN5alloc4sync12Arc$LT$T$GT$9drop_slow17hc808dcd44ef5f435E

	.section	.text._ZN5alloc5alloc8box_free17h1532118aded4f4a7E,"",@
	.type	_ZN5alloc5alloc8box_free17h1532118aded4f4a7E,@function
_ZN5alloc5alloc8box_free17h1532118aded4f4a7E:
	.functype	_ZN5alloc5alloc8box_free17h1532118aded4f4a7E (i32, i32) -> ()
	.local  	i32
	block   	
	local.get	1
	i32.load	4
	local.tee	2
	i32.eqz
	br_if   	0
	local.get	0
	local.get	2
	local.get	1
	i32.load	8
	call	__rust_dealloc
.LBB22_2:
	end_block
	end_function
.Lfunc_end22:
	.size	_ZN5alloc5alloc8box_free17h1532118aded4f4a7E, .Lfunc_end22-_ZN5alloc5alloc8box_free17h1532118aded4f4a7E

	.section	.text._ZN5alloc5alloc8box_free17hbfb750caac89b583E,"",@
	.type	_ZN5alloc5alloc8box_free17hbfb750caac89b583E,@function
_ZN5alloc5alloc8box_free17hbfb750caac89b583E:
	.functype	_ZN5alloc5alloc8box_free17hbfb750caac89b583E (i32) -> ()
	local.get	0
	i32.const	12
	i32.const	4
	call	__rust_dealloc
	end_function
.Lfunc_end23:
	.size	_ZN5alloc5alloc8box_free17hbfb750caac89b583E, .Lfunc_end23-_ZN5alloc5alloc8box_free17hbfb750caac89b583E

	.section	".text._ZN67_$LT$alloc..boxed..Box$LT$T$C$A$GT$$u20$as$u20$core..fmt..Debug$GT$3fmt17h032d27dac8d4a121E","",@
	.type	_ZN67_$LT$alloc..boxed..Box$LT$T$C$A$GT$$u20$as$u20$core..fmt..Debug$GT$3fmt17h032d27dac8d4a121E,@function
_ZN67_$LT$alloc..boxed..Box$LT$T$C$A$GT$$u20$as$u20$core..fmt..Debug$GT$3fmt17h032d27dac8d4a121E:
	.functype	_ZN67_$LT$alloc..boxed..Box$LT$T$C$A$GT$$u20$as$u20$core..fmt..Debug$GT$3fmt17h032d27dac8d4a121E (i32, i32) -> (i32)
	local.get	0
	i32.load	0
	local.get	0
	i32.load	4
	local.get	1
	call	_ZN82_$LT$dyn$u20$core..any..Any$u2b$core..marker..Send$u20$as$u20$core..fmt..Debug$GT$3fmt17hf2d48f1b54eb4c78E
	end_function
.Lfunc_end24:
	.size	_ZN67_$LT$alloc..boxed..Box$LT$T$C$A$GT$$u20$as$u20$core..fmt..Debug$GT$3fmt17h032d27dac8d4a121E, .Lfunc_end24-_ZN67_$LT$alloc..boxed..Box$LT$T$C$A$GT$$u20$as$u20$core..fmt..Debug$GT$3fmt17h032d27dac8d4a121E

	.section	.text._ZN3tls4main17h57cc5b0febcd0058E,"",@
	.type	_ZN3tls4main17h57cc5b0febcd0058E,@function
_ZN3tls4main17h57cc5b0febcd0058E:
	.functype	_ZN3tls4main17h57cc5b0febcd0058E () -> ()
	.local  	i32, i32, i32, i32, i32, i32, i64
	global.get	__stack_pointer
	i32.const	96
	i32.sub 
	local.tee	0
	global.set	__stack_pointer
	block   	
	block   	
	block   	
	block   	
	block   	
	block   	
	block   	
	block   	
	block   	
	block   	
	block   	
	block   	
	block   	
	block   	
	block   	
	global.get	__tls_base
	i32.const	_ZN3tls4VAR17__getit5__KEY17hf0a0b0a039c53e14E@TLSREL
	i32.add 
	local.tee	1
	i32.load	0
	i32.const	1
	i32.ne  
	br_if   	0
	local.get	1
	i32.const	4
	i32.add 
	local.set	1
	br      	1
.LBB25_2:
	end_block
	call	_ZN3std6thread5local4fast12Key$LT$T$GT$14try_initialize17hcc86a33456781b12E
	local.tee	1
	i32.eqz
	br_if   	1
.LBB25_3:
	end_block
	local.get	0
	i32.const	20
	i32.add 
	i32.const	1
	i32.store	0
	local.get	0
	i64.const	2
	i64.store	4:p2align=2
	local.get	0
	i32.const	.L__unnamed_8
	i32.store	0
	local.get	1
	i32.load	0
	local.set	1
	local.get	0
	i32.const	_ZN4core3fmt3num3imp52_$LT$impl$u20$core..fmt..Display$u20$for$u20$i32$GT$3fmt17h2dce79fe9c4168f4E
	i32.store	28
	local.get	0
	local.get	1
	i32.store	80
	local.get	0
	local.get	0
	i32.const	24
	i32.add 
	i32.store	16
	local.get	0
	local.get	0
	i32.const	80
	i32.add 
	i32.store	24
	local.get	0
	call	_ZN3std2io5stdio6_print17h452c99b34f4cbd02E
	local.get	0
	i32.const	24
	i32.add 
	call	_ZN3std6thread7Builder3new17h4c4a05d19dfb6db6E
	local.get	0
	i32.const	40
	i32.add 
	i32.load	0
	local.set	2
	local.get	0
	i32.load	36
	local.set	1
	local.get	0
	i32.const	48
	i32.add 
	i32.const	8
	i32.add 
	local.get	0
	i32.const	24
	i32.add 
	i32.const	8
	i32.add 
	i32.load	0
	i32.store	0
	local.get	0
	local.get	0
	i64.load	24
	i64.store	48
	block   	
	block   	
	block   	
	block   	
	local.get	1
	br_if   	0
	global.get	__tls_base
	i32.const	__THREW__@TLSREL
	i32.add 
	local.tee	1
	i32.const	0
	i32.store	0
	i32.const	_ZN3std10sys_common6thread9min_stack17h3d2d3d3872bd4e6cE
	call	invoke_i
	local.set	2
	local.get	1
	i32.load	0
	local.set	3
	local.get	1
	i32.const	0
	i32.store	0
	local.get	3
	i32.const	1
	i32.eq  
	br_if   	1
.LBB25_5:
	end_block
	block   	
	block   	
	local.get	0
	i32.load	48
	local.tee	1
	br_if   	0
	i32.const	0
	local.set	1
	br      	1
.LBB25_7:
	end_block
	local.get	0
	local.get	0
	i64.load	52:p2align=2
	i64.store	4:p2align=2
	local.get	0
	local.get	1
	i32.store	0
	local.get	0
	i32.const	80
	i32.add 
	local.get	0
	call	_ZN5alloc6string104_$LT$impl$u20$core..convert..From$LT$alloc..string..String$GT$$u20$for$u20$alloc..vec..Vec$LT$u8$GT$$GT$4from17hb314cc2b81cc104fE
	local.get	0
	local.get	0
	i32.const	80
	i32.add 
	call	_ZN3std3ffi5c_str7CString4_new17h12de52d892f6780cE
	block   	
	local.get	0
	i32.load	0
	i32.const	1
	i32.ne  
	br_if   	0
	global.get	__tls_base
	i32.const	__THREW__@TLSREL
	i32.add 
	local.tee	1
	i32.const	0
	i32.store	0
	local.get	0
	i32.const	88
	i32.add 
	local.get	0
	i32.const	12
	i32.add 
	i64.load	0:p2align=2
	i64.store	0
	local.get	0
	local.get	0
	i64.load	4:p2align=2
	i64.store	80
	i32.const	_ZN4core6result13unwrap_failed17h4016779130cc2b21E
	i32.const	.L__unnamed_9
	i32.const	47
	local.get	0
	i32.const	80
	i32.add 
	i32.const	.L__unnamed_10
	i32.const	.L__unnamed_11
	call	invoke_viiiii
	local.get	1
	i32.load	0
	local.set	3
	local.get	1
	i32.const	0
	i32.store	0
	local.get	3
	i32.const	1
	i32.ne  
	br_if   	14
	call	__cxa_find_matching_catch_2
	local.set	1
	call	getTempRet0
	drop
	local.get	0
	i32.const	80
	i32.add 
	call	_ZN4core3ptr46drop_in_place$LT$std..ffi..c_str..NulError$GT$17hd1d295e46a8a7bbeE
	local.get	1
	call	__resumeException
	unreachable
.LBB25_10:
	end_block
	local.get	0
	i32.const	8
	i32.add 
	i32.load	0
	local.set	3
	local.get	0
	i32.load	4
	local.set	1
.LBB25_11:
	end_block
	local.get	0
	local.get	1
	local.get	3
	call	_ZN3std6thread6Thread3new17h72e85afc217959ffE
	local.tee	1
	i32.store	60
	local.get	1
	i32.const	1
	i32.atomic.rmw.add	0
	i32.const	-1
	i32.le_s
	br_if   	6
	local.get	0
	local.get	1
	i32.store	64
	block   	
	i32.const	20
	i32.const	4
	call	__rust_alloc
	local.tee	1
	br_if   	0
	i32.const	20
	i32.const	4
	call	_ZN5alloc5alloc18handle_alloc_error17h69e78be6ad71906dE
	unreachable
.LBB25_14:
	end_block
	local.get	1
	i32.const	0
	i32.store	8
	local.get	1
	i64.const	4294967297
	i64.store	0:p2align=2
	local.get	0
	local.get	1
	i32.store	68
	local.get	1
	i32.const	1
	i32.atomic.rmw.add	0
	i32.const	-1
	i32.le_s
	br_if   	6
	global.get	__tls_base
	i32.const	__THREW__@TLSREL
	i32.add 
	local.tee	3
	i32.const	0
	i32.store	0
	local.get	0
	local.get	1
	i32.store	72
	i32.const	_ZN3std2io5stdio18set_output_capture17h210ac67ea7bdfc46E
	i32.const	0
	call	invoke_ii
	local.set	1
	local.get	3
	i32.load	0
	local.set	4
	local.get	3
	i32.const	0
	i32.store	0
	local.get	4
	i32.const	1
	i32.eq  
	br_if   	4
	local.get	0
	local.get	1
	i32.store	76
	block   	
	local.get	1
	i32.eqz
	br_if   	0
	local.get	1
	i32.const	1
	i32.atomic.rmw.add	0
	i32.const	-1
	i32.le_s
	br_if   	7
.LBB25_18:
	end_block
	global.get	__tls_base
	i32.const	__THREW__@TLSREL
	i32.add 
	local.tee	3
	i32.const	0
	i32.store	0
	i32.const	_ZN3std2io5stdio18set_output_capture17h210ac67ea7bdfc46E
	local.get	1
	call	invoke_ii
	local.set	1
	local.get	3
	i32.load	0
	local.set	4
	local.get	3
	i32.const	0
	i32.store	0
	block   	
	local.get	4
	i32.const	1
	i32.eq  
	br_if   	0
	block   	
	local.get	1
	i32.eqz
	br_if   	0
	local.get	1
	i32.const	1
	i32.atomic.rmw.sub	0
	i32.const	1
	i32.ne  
	br_if   	0
	global.get	__tls_base
	local.set	3
	atomic.fence
	local.get	3
	i32.const	__THREW__@TLSREL
	i32.add 
	local.tee	3
	i32.const	0
	i32.store	0
	i32.const	_ZN5alloc4sync12Arc$LT$T$GT$9drop_slow17h0ed690f7864187afE
	local.get	1
	call	invoke_vi
	local.get	3
	i32.load	0
	local.set	1
	local.get	3
	i32.const	0
	i32.store	0
	local.get	1
	i32.const	1
	i32.eq  
	br_if   	1
.LBB25_22:
	end_block
	local.get	0
	i32.load	72
	local.set	3
	local.get	0
	i32.load	76
	local.set	4
	local.get	0
	i32.load	64
	local.set	5
	i32.const	12
	i32.const	4
	call	__rust_alloc
	local.tee	1
	i32.eqz
	br_if   	6
	local.get	1
	local.get	3
	i32.store	8
	local.get	1
	local.get	4
	i32.store	4
	local.get	1
	local.get	5
	i32.store	0
	global.get	__tls_base
	i32.const	__THREW__@TLSREL
	i32.add 
	local.tee	3
	i32.const	0
	i32.store	0
	i32.const	_ZN3std3sys4unix6thread6Thread3new17he8ad19f4d63e347bE
	local.get	0
	local.get	2
	local.get	1
	i32.const	.L__unnamed_12
	call	invoke_viiii
	local.get	3
	i32.load	0
	local.set	1
	local.get	3
	i32.const	0
	i32.store	0
	local.get	1
	i32.const	1
	i32.eq  
	br_if   	15
	local.get	0
	i32.load	0
	i32.const	1
	i32.ne  
	br_if   	3
	local.get	0
	i64.load	4:p2align=2
	local.set	6
	block   	
	local.get	0
	i32.load	68
	i32.const	1
	i32.atomic.rmw.sub	0
	i32.const	1
	i32.ne  
	br_if   	0
	global.get	__tls_base
	local.set	1
	atomic.fence
	local.get	1
	i32.const	__THREW__@TLSREL
	i32.add 
	local.tee	1
	i32.const	0
	i32.store	0
	i32.const	_ZN5alloc4sync12Arc$LT$T$GT$9drop_slow17ha4307a772e8cc4c6E
	local.get	0
	i32.load	68
	call	invoke_vi
	local.get	1
	i32.load	0
	local.set	3
	local.get	1
	i32.const	0
	i32.store	0
	local.get	3
	i32.const	1
	i32.eq  
	br_if   	3
.LBB25_27:
	end_block
	block   	
	local.get	0
	i32.load	60
	i32.const	1
	i32.atomic.rmw.sub	0
	i32.const	1
	i32.ne  
	br_if   	0
	atomic.fence
	local.get	0
	i32.load	60
	call	_ZN5alloc4sync12Arc$LT$T$GT$9drop_slow17hc808dcd44ef5f435E
.LBB25_29:
	end_block
	global.get	__tls_base
	i32.const	__THREW__@TLSREL
	i32.add 
	local.tee	1
	i32.const	0
	i32.store	0
	local.get	0
	local.get	6
	i64.store	0
	i32.const	_ZN4core6result13unwrap_failed17h4016779130cc2b21E
	i32.const	.L__unnamed_13
	i32.const	22
	local.get	0
	i32.const	.L__unnamed_14
	i32.const	.L__unnamed_15
	call	invoke_viiiii
	local.get	1
	i32.load	0
	local.set	3
	local.get	1
	i32.const	0
	i32.store	0
	local.get	3
	i32.const	1
	i32.ne  
	br_if   	13
	call	__cxa_find_matching_catch_2
	local.set	1
	call	getTempRet0
	drop
	local.get	0
	call	_ZN4core3ptr42drop_in_place$LT$std..io..error..Error$GT$17hbea4e2bb461dc54eE
	local.get	1
	call	__resumeException
	unreachable
.LBB25_31:
	end_block
	call	__cxa_find_matching_catch_2
	local.set	1
	call	getTempRet0
	drop
	local.get	0
	i32.const	76
	i32.add 
	call	_ZN4core3ptr129drop_in_place$LT$core..option..Option$LT$alloc..sync..Arc$LT$std..sync..mutex..Mutex$LT$alloc..vec..Vec$LT$u8$GT$$GT$$GT$$GT$$GT$17h0b55e70c3662d852E
	br      	13
.LBB25_32:
	end_block
	call	__cxa_find_matching_catch_2
	local.set	1
	call	getTempRet0
	drop
	local.get	0
	i32.const	48
	i32.add 
	call	_ZN4core3ptr70drop_in_place$LT$core..option..Option$LT$alloc..string..String$GT$$GT$17hc02b1bdd86a9767fE
	local.get	1
	call	__resumeException
	unreachable
.LBB25_33:
	end_block
	call	__cxa_find_matching_catch_2
	local.set	1
	call	getTempRet0
	drop
	local.get	0
	i32.const	60
	i32.add 
	call	_ZN4core3ptr40drop_in_place$LT$std..thread..Thread$GT$17hdd8c6526cf96b5bfE
	local.get	1
	call	__resumeException
	unreachable
.LBB25_34:
	end_block
	local.get	0
	local.get	0
	i32.load	68
	i32.store	92
	local.get	0
	local.get	0
	i32.load	60
	i32.store	88
	local.get	0
	local.get	0
	i64.load32_u	4
	i64.const	32
	i64.shl 
	i64.const	1
	i64.or  
	i64.store	80
	block   	
	global.get	__tls_base
	i32.const	_ZN3tls4VAR17__getit5__KEY17hf0a0b0a039c53e14E@TLSREL
	i32.add 
	local.tee	1
	i32.load	0
	i32.const	1
	i32.ne  
	br_if   	0
	local.get	1
	i32.const	4
	i32.add 
	local.set	1
	br      	5
.LBB25_36:
	end_block
	call	_ZN3std6thread5local4fast12Key$LT$T$GT$14try_initialize17hcc86a33456781b12E
	local.tee	1
	br_if   	4
	global.get	__tls_base
	i32.const	__THREW__@TLSREL
	i32.add 
	local.tee	1
	i32.const	0
	i32.store	0
	i32.const	_ZN4core6result13unwrap_failed17h4016779130cc2b21E
	i32.const	.L__unnamed_3
	i32.const	70
	local.get	0
	i32.const	.L__unnamed_4
	i32.const	.L__unnamed_5
	call	invoke_viiiii
	local.get	1
	i32.load	0
	local.set	3
	local.get	1
	i32.const	0
	i32.store	0
	local.get	3
	i32.const	1
	i32.ne  
	br_if   	9
	br      	5
.LBB25_38:
	end_block
	i32.const	.L__unnamed_3
	i32.const	70
	local.get	0
	i32.const	.L__unnamed_4
	i32.const	.L__unnamed_5
	call	_ZN4core6result13unwrap_failed17h4016779130cc2b21E
	unreachable
.LBB25_39:
	end_block
	call	__cxa_find_matching_catch_2
	local.set	1
	call	getTempRet0
	drop
	br      	8
.LBB25_40:
	end_block
	i32.const	12
	i32.const	4
	call	_ZN5alloc5alloc18handle_alloc_error17h69e78be6ad71906dE
	unreachable
.LBB25_41:
	end_block
	unreachable
	unreachable
.LBB25_42:
	end_block
	local.get	1
	i32.const	2
	i32.store	0
	block   	
	block   	
	global.get	__tls_base
	i32.const	_ZN3tls4VAR17__getit5__KEY17hf0a0b0a039c53e14E@TLSREL
	i32.add 
	local.tee	1
	i32.load	0
	i32.const	1
	i32.ne  
	br_if   	0
	local.get	1
	i32.const	4
	i32.add 
	local.set	1
	br      	1
.LBB25_44:
	end_block
	call	_ZN3std6thread5local4fast12Key$LT$T$GT$14try_initialize17hcc86a33456781b12E
	local.tee	1
	br_if   	0
	global.get	__tls_base
	i32.const	__THREW__@TLSREL
	i32.add 
	local.tee	1
	i32.const	0
	i32.store	0
	i32.const	_ZN4core6result13unwrap_failed17h4016779130cc2b21E
	i32.const	.L__unnamed_3
	i32.const	70
	local.get	0
	i32.const	.L__unnamed_4
	i32.const	.L__unnamed_5
	call	invoke_viiiii
	local.get	1
	i32.load	0
	local.set	3
	local.get	1
	i32.const	0
	i32.store	0
	local.get	3
	i32.const	1
	i32.eq  
	br_if   	1
	br      	5
.LBB25_46:
	end_block
	local.get	0
	i32.const	20
	i32.add 
	i32.const	1
	i32.store	0
	global.get	__tls_base
	local.set	3
	local.get	1
	i32.load	0
	local.set	2
	local.get	3
	i32.const	__THREW__@TLSREL
	i32.add 
	local.tee	1
	i32.const	0
	i32.store	0
	local.get	0
	i64.const	2
	i64.store	4:p2align=2
	local.get	0
	i32.const	.L__unnamed_16
	i32.store	0
	local.get	0
	i32.const	_ZN4core3fmt3num3imp52_$LT$impl$u20$core..fmt..Display$u20$for$u20$i32$GT$3fmt17h2dce79fe9c4168f4E
	i32.store	28
	local.get	0
	local.get	2
	i32.store	48
	local.get	0
	local.get	0
	i32.const	24
	i32.add 
	i32.store	16
	local.get	0
	local.get	0
	i32.const	48
	i32.add 
	i32.store	24
	i32.const	_ZN3std2io5stdio6_print17h452c99b34f4cbd02E
	local.get	0
	call	invoke_vi
	local.get	1
	i32.load	0
	local.set	3
	local.get	1
	i32.const	0
	i32.store	0
	local.get	3
	i32.const	1
	i32.eq  
	br_if   	0
	local.get	0
	i32.const	8
	i32.add 
	local.get	0
	i32.const	80
	i32.add 
	i32.const	8
	i32.add 
	i64.load	0
	i64.store	0
	local.get	0
	local.get	0
	i64.load	80
	local.tee	6
	i64.store	0
	local.get	0
	i32.const	0
	i32.store	0
	local.get	6
	i32.wrap_i64
	br_if   	1
	global.get	__tls_base
	i32.const	__THREW__@TLSREL
	i32.add 
	local.tee	1
	i32.const	0
	i32.store	0
	i32.const	_ZN4core9panicking5panic17hee4c988cbcffcc61E
	i32.const	.L__unnamed_17
	i32.const	43
	i32.const	.L__unnamed_18
	call	invoke_viii
	local.get	1
	i32.load	0
	local.set	3
	local.get	1
	i32.const	0
	i32.store	0
	local.get	3
	i32.const	1
	i32.ne  
	br_if   	4
	br      	2
.LBB25_49:
	end_block
	call	__cxa_find_matching_catch_2
	local.set	1
	call	getTempRet0
	drop
	local.get	0
	i32.const	80
	i32.add 
	call	_ZN4core3ptr60drop_in_place$LT$std..thread..JoinHandle$LT$$LP$$RP$$GT$$GT$17hcfba2ed713450317E
	local.get	1
	call	__resumeException
	unreachable
.LBB25_50:
	end_block
	global.get	__tls_base
	i32.const	__THREW__@TLSREL
	i32.add 
	local.tee	1
	i32.const	0
	i32.store	0
	i32.const	_ZN3std3sys4unix6thread6Thread4join17h3f2f87ac30cdbdc3E
	local.get	6
	i64.const	32
	i64.shr_u
	i32.wrap_i64
	call	invoke_vi
	local.get	1
	i32.load	0
	local.set	3
	local.get	1
	i32.const	0
	i32.store	0
	local.get	3
	i32.const	1
	i32.eq  
	br_if   	0
	local.get	0
	i32.load	12
	local.tee	1
	i32.load	8
	local.set	3
	local.get	1
	i32.const	0
	i32.store	8
	local.get	3
	i32.const	1
	i32.eq  
	br_if   	1
	global.get	__tls_base
	i32.const	__THREW__@TLSREL
	i32.add 
	local.tee	1
	i32.const	0
	i32.store	0
	i32.const	_ZN4core9panicking5panic17hee4c988cbcffcc61E
	i32.const	.L__unnamed_17
	i32.const	43
	i32.const	.L__unnamed_19
	call	invoke_viii
	local.get	1
	i32.load	0
	local.set	3
	local.get	1
	i32.const	0
	i32.store	0
	local.get	3
	i32.const	1
	i32.ne  
	br_if   	2
.LBB25_53:
	end_block
	call	__cxa_find_matching_catch_2
	local.set	1
	call	getTempRet0
	drop
	local.get	0
	call	_ZN4core3ptr60drop_in_place$LT$std..thread..JoinHandle$LT$$LP$$RP$$GT$$GT$17hcfba2ed713450317E
	local.get	1
	call	__resumeException
	unreachable
.LBB25_54:
	end_block
	local.get	1
	i32.load	16
	local.set	3
	local.get	1
	i32.load	12
	local.set	1
	block   	
	local.get	0
	i32.load	8
	i32.const	1
	i32.atomic.rmw.sub	0
	i32.const	1
	i32.ne  
	br_if   	0
	atomic.fence
	local.get	0
	i32.load	8
	call	_ZN5alloc4sync12Arc$LT$T$GT$9drop_slow17hc808dcd44ef5f435E
.LBB25_56:
	end_block
	block   	
	local.get	0
	i32.load	12
	i32.const	1
	i32.atomic.rmw.sub	0
	i32.const	1
	i32.ne  
	br_if   	0
	atomic.fence
	local.get	0
	i32.load	12
	call	_ZN5alloc4sync12Arc$LT$T$GT$9drop_slow17ha4307a772e8cc4c6E
.LBB25_58:
	end_block
	block   	
	local.get	1
	i32.eqz
	br_if   	0
	global.get	__tls_base
	i32.const	__THREW__@TLSREL
	i32.add 
	local.tee	2
	i32.const	0
	i32.store	0
	local.get	0
	local.get	3
	i32.store	4
	local.get	0
	local.get	1
	i32.store	0
	i32.const	_ZN4core6result13unwrap_failed17h4016779130cc2b21E
	i32.const	.L__unnamed_20
	i32.const	43
	local.get	0
	i32.const	.L__unnamed_21
	i32.const	.L__unnamed_22
	call	invoke_viiiii
	local.get	2
	i32.load	0
	local.set	1
	local.get	2
	i32.const	0
	i32.store	0
	local.get	1
	i32.const	1
	i32.ne  
	br_if   	1
	call	__cxa_find_matching_catch_2
	local.set	1
	call	getTempRet0
	drop
	local.get	0
	call	_ZN4core3ptr91drop_in_place$LT$alloc..boxed..Box$LT$dyn$u20$core..any..Any$u2b$core..marker..Send$GT$$GT$17h9a86e025400bcb81E
	local.get	1
	call	__resumeException
	unreachable
.LBB25_61:
	end_block
	local.get	0
	i32.const	96
	i32.add 
	global.set	__stack_pointer
	return
.LBB25_62:
	end_block
	unreachable
.LBB25_63:
	end_block
	local.get	0
	i32.const	72
	i32.add 
	call	_ZN4core3ptr212drop_in_place$LT$alloc..sync..Arc$LT$core..cell..UnsafeCell$LT$core..option..Option$LT$core..result..Result$LT$$LP$$RP$$C$alloc..boxed..Box$LT$dyn$u20$core..any..Any$u2b$core..marker..Send$GT$$GT$$GT$$GT$$GT$$GT$17h482a81bf3f178f7bE
	local.get	0
	i32.const	68
	i32.add 
	call	_ZN4core3ptr212drop_in_place$LT$alloc..sync..Arc$LT$core..cell..UnsafeCell$LT$core..option..Option$LT$core..result..Result$LT$$LP$$RP$$C$alloc..boxed..Box$LT$dyn$u20$core..any..Any$u2b$core..marker..Send$GT$$GT$$GT$$GT$$GT$$GT$17h482a81bf3f178f7bE
	local.get	0
	i32.const	64
	i32.add 
	call	_ZN4core3ptr40drop_in_place$LT$std..thread..Thread$GT$17hdd8c6526cf96b5bfE
	br      	1
.LBB25_64:
	end_block
	call	__cxa_find_matching_catch_2
	local.set	1
	call	getTempRet0
	drop
	local.get	0
	i32.const	68
	i32.add 
	call	_ZN4core3ptr212drop_in_place$LT$alloc..sync..Arc$LT$core..cell..UnsafeCell$LT$core..option..Option$LT$core..result..Result$LT$$LP$$RP$$C$alloc..boxed..Box$LT$dyn$u20$core..any..Any$u2b$core..marker..Send$GT$$GT$$GT$$GT$$GT$$GT$17h482a81bf3f178f7bE
.LBB25_65:
	end_block
	local.get	0
	i32.const	60
	i32.add 
	call	_ZN4core3ptr40drop_in_place$LT$std..thread..Thread$GT$17hdd8c6526cf96b5bfE
	local.get	1
	call	__resumeException
	unreachable
	end_function
.Lfunc_end25:
	.size	_ZN3tls4main17h57cc5b0febcd0058E, .Lfunc_end25-_ZN3tls4main17h57cc5b0febcd0058E

	.section	.text.main,"",@
	.globl	main
	.type	main,@function
main:
	.functype	main (i32, i32) -> (i32)
	.local  	i32
	global.get	__stack_pointer
	i32.const	16
	i32.sub 
	local.tee	2
	global.set	__stack_pointer
	local.get	2
	i32.const	_ZN3tls4main17h57cc5b0febcd0058E
	i32.store	12
	local.get	2
	i32.const	12
	i32.add 
	i32.const	.L__unnamed_7
	local.get	0
	local.get	1
	call	_ZN3std2rt19lang_start_internal17ha9c168f62b8ed25bE
	local.set	0
	local.get	2
	i32.const	16
	i32.add 
	global.set	__stack_pointer
	local.get	0
	end_function
.Lfunc_end26:
	.size	main, .Lfunc_end26-main

	.type	.L__unnamed_7,@object
	.section	.rodata..L__unnamed_7,"",@
	.p2align	2
.L__unnamed_7:
	.int32	_ZN4core3ptr52drop_in_place$LT$std..thread..local..AccessError$GT$17h674285053afceec0E
	.asciz	"\004\000\000\000\004\000\000"
	.int32	_ZN4core3ops8function6FnOnce40call_once$u7b$$u7b$vtable.shim$u7d$$u7d$17hb27c4572b8351d7eE
	.int32	_ZN3std2rt10lang_start28_$u7b$$u7b$closure$u7d$$u7d$17h6d7bb50d5fdbc37bE
	.int32	_ZN3std2rt10lang_start28_$u7b$$u7b$closure$u7d$$u7d$17h6d7bb50d5fdbc37bE
	.size	.L__unnamed_7, 24

	.type	.L__unnamed_23,@object
	.section	.rodata..L__unnamed_23,"",@
.L__unnamed_23:
	.ascii	"/home/greg/.rustup/toolchains/nightly-x86_64-unknown-linux-gnu/lib/rustlib/src/rust/library/std/src/thread/mod.rs"
	.size	.L__unnamed_23, 113

	.type	.L__unnamed_18,@object
	.section	.rodata..L__unnamed_18,"",@
	.p2align	2
.L__unnamed_18:
	.int32	.L__unnamed_23
	.asciz	"q\000\000\000\373\004\000\000\034\000\000"
	.size	.L__unnamed_18, 16

	.type	.L__unnamed_19,@object
	.section	.rodata..L__unnamed_19,"",@
	.p2align	2
.L__unnamed_19:
	.int32	.L__unnamed_23
	.asciz	"q\000\000\000\374\004\000\0000\000\000"
	.size	.L__unnamed_19, 16

	.type	.L__unnamed_3,@object
	.section	.rodata..L__unnamed_3,"",@
.L__unnamed_3:
	.ascii	"cannot access a Thread Local Storage value during or after destruction"
	.size	.L__unnamed_3, 70

	.type	.L__unnamed_24,@object
	.section	.rodata..L__unnamed_24,"",@
.L__unnamed_24:
	.ascii	"/home/greg/.rustup/toolchains/nightly-x86_64-unknown-linux-gnu/lib/rustlib/src/rust/library/std/src/thread/local.rs"
	.size	.L__unnamed_24, 115

	.type	.L__unnamed_5,@object
	.section	.rodata..L__unnamed_5,"",@
	.p2align	2
.L__unnamed_5:
	.int32	.L__unnamed_24
	.asciz	"s\000\000\000\205\001\000\000\032\000\000"
	.size	.L__unnamed_5, 16

	.type	.L__unnamed_13,@object
	.section	.rodata..L__unnamed_13,"",@
.L__unnamed_13:
	.ascii	"failed to spawn thread"
	.size	.L__unnamed_13, 22

	.type	.L__unnamed_15,@object
	.section	.rodata..L__unnamed_15,"",@
	.p2align	2
.L__unnamed_15:
	.int32	.L__unnamed_23
	.asciz	"q\000\000\000w\002\000\000\035\000\000"
	.size	.L__unnamed_15, 16

	.type	.L__unnamed_12,@object
	.section	.rodata..L__unnamed_12,"",@
	.p2align	2
.L__unnamed_12:
	.int32	_ZN4core3ptr113drop_in_place$LT$std..thread..Builder..spawn_unchecked$LT$tls..xs$C$$LP$$RP$$GT$..$u7b$$u7b$closure$u7d$$u7d$$GT$17h5f1eddf0955464f3E
	.asciz	"\f\000\000\000\004\000\000"
	.int32	_ZN4core3ops8function6FnOnce40call_once$u7b$$u7b$vtable.shim$u7d$$u7d$17hbf7a79a0b3f677edE
	.size	.L__unnamed_12, 16

	.type	.L__unnamed_9,@object
	.section	.rodata..L__unnamed_9,"",@
.L__unnamed_9:
	.ascii	"thread name may not contain interior null bytes"
	.size	.L__unnamed_9, 47

	.type	.L__unnamed_11,@object
	.section	.rodata..L__unnamed_11,"",@
	.p2align	2
.L__unnamed_11:
	.int32	.L__unnamed_23
	.asciz	"q\000\000\000\316\001\000\000 \000\000"
	.size	.L__unnamed_11, 16

	.type	.L__unnamed_17,@object
	.section	.rodata..L__unnamed_17,"",@
.L__unnamed_17:
	.ascii	"called `Option::unwrap()` on a `None` value"
	.size	.L__unnamed_17, 43

	.type	.L__unnamed_4,@object
	.section	.rodata..L__unnamed_4,"",@
	.p2align	2
.L__unnamed_4:
	.int32	_ZN4core3ptr52drop_in_place$LT$std..thread..local..AccessError$GT$17h674285053afceec0E
	.asciz	"\000\000\000\000\001\000\000"
	.int32	_ZN68_$LT$std..thread..local..AccessError$u20$as$u20$core..fmt..Debug$GT$3fmt17ha9cbc46a07b3dd50E
	.size	.L__unnamed_4, 16

	.type	.L__unnamed_10,@object
	.section	.rodata..L__unnamed_10,"",@
	.p2align	2
.L__unnamed_10:
	.int32	_ZN4core3ptr46drop_in_place$LT$std..ffi..c_str..NulError$GT$17hd1d295e46a8a7bbeE
	.asciz	"\020\000\000\000\004\000\000"
	.int32	_ZN62_$LT$std..ffi..c_str..NulError$u20$as$u20$core..fmt..Debug$GT$3fmt17h6fbd3967a99d2107E
	.size	.L__unnamed_10, 16

	.type	.L__unnamed_14,@object
	.section	.rodata..L__unnamed_14,"",@
	.p2align	2
.L__unnamed_14:
	.int32	_ZN4core3ptr42drop_in_place$LT$std..io..error..Error$GT$17hbea4e2bb461dc54eE
	.asciz	"\b\000\000\000\004\000\000"
	.int32	_ZN58_$LT$std..io..error..Error$u20$as$u20$core..fmt..Debug$GT$3fmt17h3e2e0e37fe194a9fE
	.size	.L__unnamed_14, 16

	.type	.L__unnamed_20,@object
	.section	.rodata..L__unnamed_20,"",@
.L__unnamed_20:
	.ascii	"called `Result::unwrap()` on an `Err` value"
	.size	.L__unnamed_20, 43

	.type	.L__unnamed_21,@object
	.section	.rodata..L__unnamed_21,"",@
	.p2align	2
.L__unnamed_21:
	.int32	_ZN4core3ptr91drop_in_place$LT$alloc..boxed..Box$LT$dyn$u20$core..any..Any$u2b$core..marker..Send$GT$$GT$17h9a86e025400bcb81E
	.asciz	"\b\000\000\000\004\000\000"
	.int32	_ZN67_$LT$alloc..boxed..Box$LT$T$C$A$GT$$u20$as$u20$core..fmt..Debug$GT$3fmt17h032d27dac8d4a121E
	.size	.L__unnamed_21, 16

	.type	.L__unnamed_1,@object
	.section	.rodata..L__unnamed_1,"",@
	.p2align	2
.L__unnamed_1:
	.size	.L__unnamed_1, 0

	.type	.L__unnamed_25,@object
	.section	.rodata..L__unnamed_25,"",@
.L__unnamed_25:
	.ascii	"X\n"
	.size	.L__unnamed_25, 2

	.type	.L__unnamed_2,@object
	.section	.rodata..L__unnamed_2,"",@
	.p2align	2
.L__unnamed_2:
	.int32	.L__unnamed_25
	.asciz	"\002\000\000"
	.size	.L__unnamed_2, 8

	.type	.L__unnamed_26,@object
	.section	.rodata..L__unnamed_26,"",@
.L__unnamed_26:
	.ascii	"VAR1 in thread: "
	.size	.L__unnamed_26, 16

	.type	.L__unnamed_27,@object
	.section	.rodata..L__unnamed_27,"",@
.L__unnamed_27:
	.int8	10
	.size	.L__unnamed_27, 1

	.type	.L__unnamed_6,@object
	.section	.rodata..L__unnamed_6,"",@
	.p2align	2
.L__unnamed_6:
	.int32	.L__unnamed_26
	.asciz	"\020\000\000"
	.int32	.L__unnamed_27
	.asciz	"\001\000\000"
	.size	.L__unnamed_6, 16

	.type	.L__unnamed_28,@object
	.section	.rodata..L__unnamed_28,"",@
.L__unnamed_28:
	.ascii	"VAR1 in main before: "
	.size	.L__unnamed_28, 21

	.type	.L__unnamed_8,@object
	.section	.rodata..L__unnamed_8,"",@
	.p2align	2
.L__unnamed_8:
	.int32	.L__unnamed_28
	.asciz	"\025\000\000"
	.int32	.L__unnamed_27
	.asciz	"\001\000\000"
	.size	.L__unnamed_8, 16

	.type	.L__unnamed_29,@object
	.section	.rodata..L__unnamed_29,"",@
.L__unnamed_29:
	.ascii	"VAR1 in main after: "
	.size	.L__unnamed_29, 20

	.type	.L__unnamed_16,@object
	.section	.rodata..L__unnamed_16,"",@
	.p2align	2
.L__unnamed_16:
	.int32	.L__unnamed_29
	.asciz	"\024\000\000"
	.int32	.L__unnamed_27
	.asciz	"\001\000\000"
	.size	.L__unnamed_16, 16

	.type	.L__unnamed_30,@object
	.section	.rodata..L__unnamed_30,"",@
.L__unnamed_30:
	.ascii	"src/main.rs"
	.size	.L__unnamed_30, 11

	.type	.L__unnamed_22,@object
	.section	.rodata..L__unnamed_22,"",@
	.p2align	2
.L__unnamed_22:
	.int32	.L__unnamed_30
	.asciz	"\013\000\000\000\023\000\000\000\017\000\000"
	.size	.L__unnamed_22, 16

	.type	_ZN3tls4VAR17__getit5__KEY17hf0a0b0a039c53e14E,@object
	.section	.tbss._ZN3tls4VAR17__getit5__KEY17hf0a0b0a039c53e14E,"T",@
	.p2align	2
_ZN3tls4VAR17__getit5__KEY17hf0a0b0a039c53e14E:
	.skip	12
	.size	_ZN3tls4VAR17__getit5__KEY17hf0a0b0a039c53e14E, 12

	.no_dead_strip	__indirect_function_table
	.size	rust_eh_catch_typeinfo, 8
	.size	__THREW__, 4
	.size	__threwValue, 4
	.section	.custom_section.target_features,"",@
	.int8	2
	.int8	43
	.int8	7
	.ascii	"atomics"
	.int8	43
	.int8	11
	.ascii	"bulk-memory"
	.section	.tbss._ZN3tls4VAR17__getit5__KEY17hf0a0b0a039c53e14E,"T",@
